; Function Attrs: nofree norecurse nosync nounwind memory(read, argmem: readwrite, inaccessiblemem: none) uwtable
define void @Aig_CManGetNode(ptr noundef captures(none) %0, ptr noundef writeonly captures(none) %1, ptr noundef writeonly captures(none) %2) local_unnamed_addr #14 {
  %4 = getelementptr inbounds nuw i8, ptr %0, i64 12
  %5 = load i32, ptr %4, align 4, !tbaa !52
  %6 = add nsw i32 %5, 1
  store i32 %6, ptr %4, align 4, !tbaa !52
  %7 = shl i32 %5, 1
  %8 = getelementptr inbounds nuw i8, ptr %0, i64 24
  %.promoted.i = load ptr, ptr %8, align 8, !tbaa !54
  %9 = getelementptr inbounds nuw i8, ptr %.promoted.i, i64 1
  store ptr %9, ptr %8, align 8, !tbaa !54
  %10 = load i8, ptr %.promoted.i, align 1, !tbaa !25
  %11 = zext i8 %10 to i32
  %.not8.i = icmp sgt i8 %10, -1
  br i1 %.not8.i, label %Aig_CManRestoreNum.exit, label %.lr.ph.i

.lr.ph.i:                                         ; preds = %3, %.lr.ph.i
  %12 = phi i32 [ %21, %.lr.ph.i ], [ %11, %3 ]
  %13 = phi ptr [ %19, %.lr.ph.i ], [ %9, %3 ]
  %.010.i = phi i32 [ %17, %.lr.ph.i ], [ 0, %3 ]
  %.079.i = phi i32 [ %18, %.lr.ph.i ], [ 0, %3 ]
  %14 = and i32 %12, 127
  %15 = mul nuw nsw i32 %.079.i, 7
  %16 = shl i32 %14, %15
  %17 = or i32 %16, %.010.i
  %18 = add nuw nsw i32 %.079.i, 1
  %19 = getelementptr inbounds nuw i8, ptr %13, i64 1
  store ptr %19, ptr %8, align 8, !tbaa !54
  %20 = load i8, ptr %13, align 1, !tbaa !25
  %21 = zext i8 %20 to i32
  %.not.i = icmp sgt i8 %20, -1
  br i1 %.not.i, label %._crit_edge.loopexit.i, label %.lr.ph.i, !llvm.loop !56

._crit_edge.loopexit.i:                           ; preds = %.lr.ph.i
  %22 = mul nuw nsw i32 %18, 7
  br label %Aig_CManRestoreNum.exit

Aig_CManRestoreNum.exit:                          ; preds = %3, %._crit_edge.loopexit.i
  %.promoted.i6 = phi ptr [ %9, %3 ], [ %19, %._crit_edge.loopexit.i ]
  %.07.lcssa.i = phi i32 [ 0, %3 ], [ %22, %._crit_edge.loopexit.i ]
  %.0.lcssa.i = phi i32 [ 0, %3 ], [ %17, %._crit_edge.loopexit.i ]
  %.lcssa.i = phi i32 [ %11, %3 ], [ %21, %._crit_edge.loopexit.i ]
  %23 = shl i32 %.lcssa.i, %.07.lcssa.i
  %24 = or i32 %23, %.0.lcssa.i
  %25 = sub nsw i32 %7, %24
  store i32 %25, ptr %2, align 4, !tbaa !37
  %26 = getelementptr inbounds nuw i8, ptr %.promoted.i6, i64 1
  store ptr %26, ptr %8, align 8, !tbaa !54
  %27 = load i8, ptr %.promoted.i6, align 1, !tbaa !25
  %28 = zext i8 %27 to i32
  %.not8.i7 = icmp sgt i8 %27, -1
  br i1 %.not8.i7, label %Aig_CManRestoreNum.exit16, label %.lr.ph.i8

.lr.ph.i8:                                        ; preds = %Aig_CManRestoreNum.exit, %.lr.ph.i8
  %29 = phi i32 [ %38, %.lr.ph.i8 ], [ %28, %Aig_CManRestoreNum.exit ]
  %30 = phi ptr [ %36, %.lr.ph.i8 ], [ %26, %Aig_CManRestoreNum.exit ]
  %.010.i9 = phi i32 [ %34, %.lr.ph.i8 ], [ 0, %Aig_CManRestoreNum.exit ]
  %.079.i10 = phi i32 [ %35, %.lr.ph.i8 ], [ 0, %Aig_CManRestoreNum.exit ]
  %31 = and i32 %29, 127
  %32 = mul nuw nsw i32 %.079.i10, 7
  %33 = shl i32 %31, %32
  %34 = or i32 %33, %.010.i9
  %35 = add nuw nsw i32 %.079.i10, 1
  %36 = getelementptr inbounds nuw i8, ptr %30, i64 1
  store ptr %36, ptr %8, align 8, !tbaa !54
  %37 = load i8, ptr %30, align 1, !tbaa !25
  %38 = zext i8 %37 to i32
  %.not.i11 = icmp sgt i8 %37, -1
  br i1 %.not.i11, label %._crit_edge.loopexit.i12, label %.lr.ph.i8, !llvm.loop !56

._crit_edge.loopexit.i12:                         ; preds = %.lr.ph.i8
  %39 = mul nuw nsw i32 %35, 7
  br label %Aig_CManRestoreNum.exit16

Aig_CManRestoreNum.exit16:                        ; preds = %Aig_CManRestoreNum.exit, %._crit_edge.loopexit.i12
  %.07.lcssa.i13 = phi i32 [ 0, %Aig_CManRestoreNum.exit ], [ %39, %._crit_edge.loopexit.i12 ]
  %.0.lcssa.i14 = phi i32 [ 0, %Aig_CManRestoreNum.exit ], [ %34, %._crit_edge.loopexit.i12 ]
  %.lcssa.i15 = phi i32 [ %28, %Aig_CManRestoreNum.exit ], [ %38, %._crit_edge.loopexit.i12 ]
  %40 = shl i32 %.lcssa.i15, %.07.lcssa.i13
  %41 = or i32 %40, %.0.lcssa.i14
  %42 = sub nsw i32 %25, %41
  store i32 %42, ptr %1, align 4, !tbaa !37
  ret void
}